cnumpy.core.multiarray
_reconstruct
p1
(cnumpy
ndarray
p2
(I0
tS'b'
tRp3
(I1
(I11
tcnumpy
dtype
p4
(S'O8'
I0
I1
tRp5
(I3
S'|'
NNNI-1
I-1
I63
tbI00
(lp6
(dp7
S'y2'
p8
I3500
sS'value'
p9
I1200
sS'y1'
p10
I3000
sS'x2'
p11
I4500
sS'x1'
p12
I500
sS'z1'
p13
I200
sS'z2'
p14
I700
sa(dp15
g8
I2300
sg9
I1200
sg10
I1800
sg11
I4500
sg12
I3000
sg13
I200
sg14
I700
sa(dp16
g8
I1500
sg9
I600
sg10
I500
sg11
I1500
sg12
I500
sg13
I0
sg14
I800
sa(dp17
g8
I2300
sg9
I600
sg10
I1800
sg11
I800
sg12
I0
sg13
I0
sg14
I200
sa(dp18
g8
I900
sg9
I600
sg10
I100
sg11
I4800
sg12
I4000
sg13
I0
sg14
I300
sa(dp19
g8
I5000
sg9
I600
sg10
I4500
sg11
I2000
sg12
I0
sg13
I0
sg14
I200
sa(dp20
g8
I2800
sg9
I-1000
sg10
I2500
sg11
I4200
sg12
I3000
sg13
I200
sg14
I700
sa(dp21
g8
I2700
sg9
I-1000
sg10
I1800
sg11
I2500
sg12
I300
sg13
I500
sg14
I1000
sa(dp22
g8
I1500
sg9
I-1000
sg10
I500
sg11
I4500
sg12
I4000
sg13
I400
sg14
I1000
sa(dp23
g8
I1500
sg9
I-1000
sg10
I500
sg11
I3700
sg12
I1800
sg13
I300
sg14
I1300
sa(dp24
g8
I4500
sg9
I-1000
sg10
I4000
sg11
I4500
sg12
I500
sg13
I400
sg14
I1300
satb.